target datalayout = "e-m:e-p270:32:32-p271:32:32-p272:64:64-i64:64-i128:128-f80:128-n8:16:32:64-S128"
target triple = "x86_64-pc-linux-gnu"

%struct.PQExpBufferData = type { ptr, i64, i64 }

@.str.20 = private unnamed_addr constant [44 x i8] c"could not send replication command \22%s\22: %s\00", align 1
@.str.52 = private unnamed_addr constant [27 x i8] c"DROP_REPLICATION_SLOT \22%s\22\00", align 1
@.str.53 = private unnamed_addr constant [96 x i8] c"could not drop replication slot \22%s\22: got %d rows and %d fields, expected %d rows and %d fields\00", align 1

; Function Attrs: nounwind uwtable
define dso_local zeroext i1 @DropReplicationSlot(ptr noundef %0, ptr noundef %1) #0 {
  %3 = alloca i1, align 1
  %4 = alloca ptr, align 8
  %5 = alloca ptr, align 8
  %6 = alloca ptr, align 8
  %7 = alloca ptr, align 8
  %8 = alloca i32, align 4
  store ptr %0, ptr %4, align 8
  store ptr %1, ptr %5, align 8
  call void @llvm.lifetime.start.p0(i64 8, ptr %6) #9
  call void @llvm.lifetime.start.p0(i64 8, ptr %7) #9
  %9 = call ptr @createPQExpBuffer()
  store ptr %9, ptr %6, align 8
  %10 = load ptr, ptr %6, align 8
  %11 = load ptr, ptr %5, align 8
  call void (ptr, ptr, ...) @appendPQExpBuffer(ptr noundef %10, ptr noundef @.str.52, ptr noundef %11)
  %12 = load ptr, ptr %4, align 8
  %13 = load ptr, ptr %6, align 8
  %14 = getelementptr inbounds nuw %struct.PQExpBufferData, ptr %13, i32 0, i32 0
  %15 = load ptr, ptr %14, align 8
  %16 = call ptr @PQexec(ptr noundef %12, ptr noundef %15)
  store ptr %16, ptr %7, align 8
  %17 = load ptr, ptr %7, align 8
  %18 = call i32 @PQresultStatus(ptr noundef %17)
  %19 = icmp ne i32 %18, 1
  br i1 %19, label %20, label %28

20:                                               ; preds = %2
  %21 = load ptr, ptr %6, align 8
  %22 = getelementptr inbounds nuw %struct.PQExpBufferData, ptr %21, i32 0, i32 0
  %23 = load ptr, ptr %22, align 8
  %24 = load ptr, ptr %4, align 8
  %25 = call ptr @PQerrorMessage(ptr noundef %24)
  call void (i32, i32, ptr, ...) @pg_log_generic(i32 noundef 4, i32 noundef 0, ptr noundef @.str.20, ptr noundef %23, ptr noundef %25)
  %26 = load ptr, ptr %6, align 8
  call void @destroyPQExpBuffer(ptr noundef %26)
  %27 = load ptr, ptr %7, align 8
  call void @PQclear(ptr noundef %27)
  store i1 false, ptr %3, align 1
  store i32 1, ptr %8, align 4
  br label %47

28:                                               ; preds = %2
  %29 = load ptr, ptr %7, align 8
  %30 = call i32 @PQntuples(ptr noundef %29)
  %31 = icmp ne i32 %30, 0
  br i1 %31, label %36, label %32

32:                                               ; preds = %28
  %33 = load ptr, ptr %7, align 8
  %34 = call i32 @PQnfields(ptr noundef %33)
  %35 = icmp ne i32 %34, 0
  br i1 %35, label %36, label %44

36:                                               ; preds = %32, %28
  %37 = load ptr, ptr %5, align 8
  %38 = load ptr, ptr %7, align 8
  %39 = call i32 @PQntuples(ptr noundef %38)
  %40 = load ptr, ptr %7, align 8
  %41 = call i32 @PQnfields(ptr noundef %40)
  call void (i32, i32, ptr, ...) @pg_log_generic(i32 noundef 4, i32 noundef 0, ptr noundef @.str.53, ptr noundef %37, i32 noundef %39, i32 noundef %41, i32 noundef 0, i32 noundef 0)
  %42 = load ptr, ptr %6, align 8
  call void @destroyPQExpBuffer(ptr noundef %42)
  %43 = load ptr, ptr %7, align 8
  call void @PQclear(ptr noundef %43)
  store i1 false, ptr %3, align 1
  store i32 1, ptr %8, align 4
  br label %47

44:                                               ; preds = %32
  %45 = load ptr, ptr %6, align 8
  call void @destroyPQExpBuffer(ptr noundef %45)
  %46 = load ptr, ptr %7, align 8
  call void @PQclear(ptr noundef %46)
  store i1 true, ptr %3, align 1
  store i32 1, ptr %8, align 4
  br label %47

47:                                               ; preds = %44, %36, %20
  call void @llvm.lifetime.end.p0(i64 8, ptr %7) #9
  call void @llvm.lifetime.end.p0(i64 8, ptr %6) #9
  %48 = load i1, ptr %3, align 1
  ret i1 %48
}