; Function Attrs: nounwind uwtable
define dso_local noundef zeroext i1 @DropReplicationSlot(ptr noundef %0, ptr noundef %1) local_unnamed_addr #0 {
  %3 = tail call ptr @createPQExpBuffer() #15
  tail call void (ptr, ptr, ...) @appendPQExpBuffer(ptr noundef %3, ptr noundef nonnull @.str.52, ptr noundef %1) #15
  %4 = load ptr, ptr %3, align 8
  %5 = tail call ptr @PQexec(ptr noundef %0, ptr noundef %4) #15
  %6 = tail call i32 @PQresultStatus(ptr noundef %5) #15
  %.not = icmp eq i32 %6, 1
  br i1 %.not, label %10, label %7

7:                                                ; preds = %2
  %8 = load ptr, ptr %3, align 8
  %9 = tail call ptr @PQerrorMessage(ptr noundef %0) #15
  tail call void (i32, i32, ptr, ...) @pg_log_generic(i32 noundef 4, i32 noundef 0, ptr noundef nonnull @.str.20, ptr noundef %8, ptr noundef %9) #15
  br label %17

10:                                               ; preds = %2
  %11 = tail call i32 @PQntuples(ptr noundef %5) #15
  %.not19 = icmp eq i32 %11, 0
  br i1 %.not19, label %12, label %14

12:                                               ; preds = %10
  %13 = tail call i32 @PQnfields(ptr noundef %5) #15
  %.not20 = icmp eq i32 %13, 0
  br i1 %.not20, label %17, label %14

14:                                               ; preds = %12, %10
  %15 = tail call i32 @PQntuples(ptr noundef %5) #15
  %16 = tail call i32 @PQnfields(ptr noundef %5) #15
  tail call void (i32, i32, ptr, ...) @pg_log_generic(i32 noundef 4, i32 noundef 0, ptr noundef nonnull @.str.53, ptr noundef %1, i32 noundef %15, i32 noundef %16, i32 noundef 0, i32 noundef 0) #15
  br label %17

17:                                               ; preds = %12, %14, %7
  %.0 = phi i1 [ false, %7 ], [ false, %14 ], [ true, %12 ]
  tail call void @destroyPQExpBuffer(ptr noundef nonnull %3) #15
  tail call void @PQclear(ptr noundef %5) #15
  ret i1 %.0
}